; Function Attrs: mustprogress uwtable
define noundef nonnull ptr @_ZN7rocksdb28FaultInjectionSecondaryCache15GetErrorContextEv(ptr noundef nonnull readonly align 8 captures(none) dereferenceable(72) %0) local_unnamed_addr #0 align 2 personality ptr @__gxx_personality_v0 {
  %2 = getelementptr inbounds nuw i8, ptr %0, i64 64
  %3 = load ptr, ptr %2, align 8, !tbaa !19
  %4 = tail call noundef ptr @_ZNK7rocksdb14ThreadLocalPtr3GetEv(ptr noundef nonnull align 4 dereferenceable(4) %3)
  %.not = icmp eq ptr %4, null
  br i1 %.not, label %5, label %12

5:                                                ; preds = %1
  %6 = tail call noalias noundef nonnull dereferenceable(4) ptr @_Znwm(i64 noundef 4) #15
  %7 = getelementptr inbounds nuw i8, ptr %0, i64 48
  %8 = load i32, ptr %7, align 8, !tbaa !21
  %9 = and i32 %8, 2147483647
  %10 = tail call noundef i32 @llvm.umax.i32(i32 %9, i32 1)
  store i32 %10, ptr %6, align 4, !tbaa !44
  %11 = load ptr, ptr %2, align 8, !tbaa !19
  tail call void @_ZN7rocksdb14ThreadLocalPtr5ResetEPv(ptr noundef nonnull align 4 dereferenceable(4) %11, ptr noundef nonnull %6)
  br label %12

12:                                               ; preds = %5, %1
  %.0 = phi ptr [ %4, %1 ], [ %6, %5 ]
  ret ptr %.0
}